target datalayout = "e-m:e-p270:32:32-p271:32:32-p272:64:64-i64:64-i128:128-f80:128-n8:16:32:64-S128"
target triple = "x86_64-pc-linux-gnu"

%struct.MOVMuxCencContext = type { ptr, ptr, i64, i64, i32, i32, i16, i64, ptr, i64, ptr, i32, i32, ptr, %struct.CodedBitstreamFragment }
%struct.CodedBitstreamFragment = type { ptr, i64, i64, ptr, i32, i32, ptr }

; Function Attrs: alwaysinline nounwind willreturn memory(none) uwtable
define internal i32 @av_bswap32(i32 noundef %0) #6 {
  %2 = alloca i32, align 4
  store i32 %0, ptr %2, align 4, !tbaa !12
  %3 = load i32, ptr %2, align 4, !tbaa !12
  %4 = shl i32 %3, 8
  %5 = and i32 %4, 65280
  %6 = load i32, ptr %2, align 4, !tbaa !12
  %7 = lshr i32 %6, 8
  %8 = and i32 %7, 255
  %9 = or i32 %5, %8
  %10 = shl i32 %9, 16
  %11 = load i32, ptr %2, align 4, !tbaa !12
  %12 = lshr i32 %11, 16
  %13 = shl i32 %12, 8
  %14 = and i32 %13, 65280
  %15 = load i32, ptr %2, align 4, !tbaa !12
  %16 = lshr i32 %15, 16
  %17 = lshr i32 %16, 8
  %18 = and i32 %17, 255
  %19 = or i32 %14, %18
  %20 = or i32 %10, %19
  ret i32 %20
}

; Function Attrs: alwaysinline nounwind willreturn memory(none) uwtable
define internal zeroext i16 @av_bswap16(i16 noundef zeroext %0) #6 {
  %2 = alloca i16, align 2
  store i16 %0, ptr %2, align 2, !tbaa !28
  %3 = load i16, ptr %2, align 2, !tbaa !28
  %4 = zext i16 %3 to i32
  %5 = ashr i32 %4, 8
  %6 = load i16, ptr %2, align 2, !tbaa !28
  %7 = zext i16 %6 to i32
  %8 = shl i32 %7, 8
  %9 = or i32 %5, %8
  %10 = trunc i32 %9 to i16
  store i16 %10, ptr %2, align 2, !tbaa !28
  %11 = load i16, ptr %2, align 2, !tbaa !28
  ret i16 %11
}

; Function Attrs: nounwind uwtable
define internal i32 @auxiliary_info_alloc_size(ptr noundef %0, i32 noundef %1) #0 {
  %3 = alloca i32, align 4
  %4 = alloca ptr, align 8
  %5 = alloca i32, align 4
  %6 = alloca i64, align 8
  %7 = alloca i32, align 4
  store ptr %0, ptr %4, align 8, !tbaa !4
  store i32 %1, ptr %5, align 4, !tbaa !12
  call void @llvm.lifetime.start.p0(i64 8, ptr %6) #7
  %8 = load ptr, ptr %4, align 8, !tbaa !4
  %9 = getelementptr inbounds nuw %struct.MOVMuxCencContext, ptr %8, i32 0, i32 2
  %10 = load i64, ptr %9, align 8, !tbaa !25
  %11 = load i32, ptr %5, align 4, !tbaa !12
  %12 = sext i32 %11 to i64
  %13 = add i64 %10, %12
  %14 = load ptr, ptr %4, align 8, !tbaa !4
  %15 = getelementptr inbounds nuw %struct.MOVMuxCencContext, ptr %14, i32 0, i32 3
  %16 = load i64, ptr %15, align 8, !tbaa !116
  %17 = icmp ugt i64 %13, %16
  br i1 %17, label %18, label %54

18:                                               ; preds = %2
  %19 = load ptr, ptr %4, align 8, !tbaa !4
  %20 = getelementptr inbounds nuw %struct.MOVMuxCencContext, ptr %19, i32 0, i32 2
  %21 = load i64, ptr %20, align 8, !tbaa !25
  %22 = load i32, ptr %5, align 4, !tbaa !12
  %23 = sext i32 %22 to i64
  %24 = add i64 %21, %23
  %25 = load ptr, ptr %4, align 8, !tbaa !4
  %26 = getelementptr inbounds nuw %struct.MOVMuxCencContext, ptr %25, i32 0, i32 3
  %27 = load i64, ptr %26, align 8, !tbaa !116
  %28 = mul i64 %27, 2
  %29 = icmp ugt i64 %24, %28
  br i1 %29, label %30, label %37

30:                                               ; preds = %18
  %31 = load ptr, ptr %4, align 8, !tbaa !4
  %32 = getelementptr inbounds nuw %struct.MOVMuxCencContext, ptr %31, i32 0, i32 2
  %33 = load i64, ptr %32, align 8, !tbaa !25
  %34 = load i32, ptr %5, align 4, !tbaa !12
  %35 = sext i32 %34 to i64
  %36 = add i64 %33, %35
  br label %42

37:                                               ; preds = %18
  %38 = load ptr, ptr %4, align 8, !tbaa !4
  %39 = getelementptr inbounds nuw %struct.MOVMuxCencContext, ptr %38, i32 0, i32 3
  %40 = load i64, ptr %39, align 8, !tbaa !116
  %41 = mul i64 %40, 2
  br label %42

42:                                               ; preds = %37, %30
  %43 = phi i64 [ %36, %30 ], [ %41, %37 ]
  store i64 %43, ptr %6, align 8, !tbaa !35
  %44 = load ptr, ptr %4, align 8, !tbaa !4
  %45 = getelementptr inbounds nuw %struct.MOVMuxCencContext, ptr %44, i32 0, i32 1
  %46 = load i64, ptr %6, align 8, !tbaa !35
  %47 = call i32 @av_reallocp(ptr noundef %45, i64 noundef %46)
  %48 = icmp ne i32 %47, 0
  br i1 %48, label %49, label %50

49:                                               ; preds = %42
  store i32 -12, ptr %3, align 4
  store i32 1, ptr %7, align 4
  br label %55

50:                                               ; preds = %42
  %51 = load i64, ptr %6, align 8, !tbaa !35
  %52 = load ptr, ptr %4, align 8, !tbaa !4
  %53 = getelementptr inbounds nuw %struct.MOVMuxCencContext, ptr %52, i32 0, i32 3
  store i64 %51, ptr %53, align 8, !tbaa !116
  br label %54

54:                                               ; preds = %50, %2
  store i32 0, ptr %3, align 4
  store i32 1, ptr %7, align 4
  br label %55

55:                                               ; preds = %54, %49
  call void @llvm.lifetime.end.p0(i64 8, ptr %6) #7
  %56 = load i32, ptr %3, align 4
  ret i32 %56
}

; Function Attrs: nounwind uwtable
define internal i32 @mov_cenc_end_packet(ptr noundef %0) #0 {
  %2 = alloca i32, align 4
  %3 = alloca ptr, align 8
  %4 = alloca i64, align 8
  %5 = alloca i32, align 4
  store ptr %0, ptr %3, align 8, !tbaa !4
  call void @llvm.lifetime.start.p0(i64 8, ptr %4) #7
  %6 = load ptr, ptr %3, align 8, !tbaa !4
  %7 = getelementptr inbounds nuw %struct.MOVMuxCencContext, ptr %6, i32 0, i32 0
  %8 = load ptr, ptr %7, align 8, !tbaa !14
  call void @av_aes_ctr_increment_iv(ptr noundef %8)
  %9 = load ptr, ptr %3, align 8, !tbaa !4
  %10 = getelementptr inbounds nuw %struct.MOVMuxCencContext, ptr %9, i32 0, i32 5
  %11 = load i32, ptr %10, align 4, !tbaa !24
  %12 = icmp ne i32 %11, 0
  br i1 %12, label %18, label %13

13:                                               ; preds = %1
  %14 = load ptr, ptr %3, align 8, !tbaa !4
  %15 = getelementptr inbounds nuw %struct.MOVMuxCencContext, ptr %14, i32 0, i32 4
  %16 = load i32, ptr %15, align 8, !tbaa !33
  %17 = add i32 %16, 1
  store i32 %17, ptr %15, align 8, !tbaa !33
  store i32 0, ptr %2, align 4
  store i32 1, ptr %5, align 4
  br label %77

18:                                               ; preds = %1
  %19 = load ptr, ptr %3, align 8, !tbaa !4
  %20 = getelementptr inbounds nuw %struct.MOVMuxCencContext, ptr %19, i32 0, i32 4
  %21 = load i32, ptr %20, align 8, !tbaa !33
  %22 = zext i32 %21 to i64
  %23 = load ptr, ptr %3, align 8, !tbaa !4
  %24 = getelementptr inbounds nuw %struct.MOVMuxCencContext, ptr %23, i32 0, i32 9
  %25 = load i64, ptr %24, align 8, !tbaa !34
  %26 = icmp uge i64 %22, %25
  br i1 %26, label %27, label %44

27:                                               ; preds = %18
  %28 = load ptr, ptr %3, align 8, !tbaa !4
  %29 = getelementptr inbounds nuw %struct.MOVMuxCencContext, ptr %28, i32 0, i32 4
  %30 = load i32, ptr %29, align 8, !tbaa !33
  %31 = mul i32 %30, 2
  %32 = add i32 %31, 1
  %33 = zext i32 %32 to i64
  store i64 %33, ptr %4, align 8, !tbaa !35
  %34 = load ptr, ptr %3, align 8, !tbaa !4
  %35 = getelementptr inbounds nuw %struct.MOVMuxCencContext, ptr %34, i32 0, i32 8
  %36 = load i64, ptr %4, align 8, !tbaa !35
  %37 = call i32 @av_reallocp(ptr noundef %35, i64 noundef %36)
  %38 = icmp ne i32 %37, 0
  br i1 %38, label %39, label %40

39:                                               ; preds = %27
  store i32 -12, ptr %2, align 4
  store i32 1, ptr %5, align 4
  br label %77

40:                                               ; preds = %27
  %41 = load i64, ptr %4, align 8, !tbaa !35
  %42 = load ptr, ptr %3, align 8, !tbaa !4
  %43 = getelementptr inbounds nuw %struct.MOVMuxCencContext, ptr %42, i32 0, i32 9
  store i64 %41, ptr %43, align 8, !tbaa !34
  br label %44

44:                                               ; preds = %40, %18
  %45 = load ptr, ptr %3, align 8, !tbaa !4
  %46 = getelementptr inbounds nuw %struct.MOVMuxCencContext, ptr %45, i32 0, i32 2
  %47 = load i64, ptr %46, align 8, !tbaa !25
  %48 = add i64 8, %47
  %49 = load ptr, ptr %3, align 8, !tbaa !4
  %50 = getelementptr inbounds nuw %struct.MOVMuxCencContext, ptr %49, i32 0, i32 7
  %51 = load i64, ptr %50, align 8, !tbaa !26
  %52 = sub i64 %48, %51
  %53 = trunc i64 %52 to i8
  %54 = load ptr, ptr %3, align 8, !tbaa !4
  %55 = getelementptr inbounds nuw %struct.MOVMuxCencContext, ptr %54, i32 0, i32 8
  %56 = load ptr, ptr %55, align 8, !tbaa !36
  %57 = load ptr, ptr %3, align 8, !tbaa !4
  %58 = getelementptr inbounds nuw %struct.MOVMuxCencContext, ptr %57, i32 0, i32 4
  %59 = load i32, ptr %58, align 8, !tbaa !33
  %60 = zext i32 %59 to i64
  %61 = getelementptr inbounds nuw i8, ptr %56, i64 %60
  store i8 %53, ptr %61, align 1, !tbaa !30
  %62 = load ptr, ptr %3, align 8, !tbaa !4
  %63 = getelementptr inbounds nuw %struct.MOVMuxCencContext, ptr %62, i32 0, i32 4
  %64 = load i32, ptr %63, align 8, !tbaa !33
  %65 = add i32 %64, 1
  store i32 %65, ptr %63, align 8, !tbaa !33
  %66 = load ptr, ptr %3, align 8, !tbaa !4
  %67 = getelementptr inbounds nuw %struct.MOVMuxCencContext, ptr %66, i32 0, i32 6
  %68 = load i16, ptr %67, align 8, !tbaa !27
  %69 = call zeroext i16 @av_bswap16(i16 noundef zeroext %68) #8
  %70 = load ptr, ptr %3, align 8, !tbaa !4
  %71 = getelementptr inbounds nuw %struct.MOVMuxCencContext, ptr %70, i32 0, i32 1
  %72 = load ptr, ptr %71, align 8, !tbaa !29
  %73 = load ptr, ptr %3, align 8, !tbaa !4
  %74 = getelementptr inbounds nuw %struct.MOVMuxCencContext, ptr %73, i32 0, i32 7
  %75 = load i64, ptr %74, align 8, !tbaa !26
  %76 = getelementptr inbounds nuw i8, ptr %72, i64 %75
  store i16 %69, ptr %76, align 1, !tbaa !30
  store i32 0, ptr %2, align 4
  store i32 1, ptr %5, align 4
  br label %77

77:                                               ; preds = %44, %39, %13
  call void @llvm.lifetime.end.p0(i64 8, ptr %4) #7
  %78 = load i32, ptr %2, align 4
  ret i32 %78
}

; Function Attrs: nounwind uwtable
define internal void @mov_cenc_write_encrypted(ptr noundef %0, ptr noundef %1, ptr noundef %2, i32 noundef %3) #0 {
  %5 = alloca ptr, align 8
  %6 = alloca ptr, align 8
  %7 = alloca ptr, align 8
  %8 = alloca i32, align 4
  %9 = alloca [4096 x i8], align 16
  %10 = alloca ptr, align 8
  %11 = alloca i32, align 4
  %12 = alloca i32, align 4
  store ptr %0, ptr %5, align 8, !tbaa !4
  store ptr %1, ptr %6, align 8, !tbaa !8
  store ptr %2, ptr %7, align 8, !tbaa !10
  store i32 %3, ptr %8, align 4, !tbaa !12
  call void @llvm.lifetime.start.p0(i64 4096, ptr %9) #7
  call void @llvm.lifetime.start.p0(i64 8, ptr %10) #7
  %13 = load ptr, ptr %7, align 8, !tbaa !10
  store ptr %13, ptr %10, align 8, !tbaa !10
  call void @llvm.lifetime.start.p0(i64 4, ptr %11) #7
  %14 = load i32, ptr %8, align 4, !tbaa !12
  store i32 %14, ptr %11, align 4, !tbaa !12
  call void @llvm.lifetime.start.p0(i64 4, ptr %12) #7
  br label %15

15:                                               ; preds = %26, %4
  %16 = load i32, ptr %11, align 4, !tbaa !12
  %17 = icmp sgt i32 %16, 0
  br i1 %17, label %18, label %45

18:                                               ; preds = %15
  %19 = load i32, ptr %11, align 4, !tbaa !12
  %20 = sext i32 %19 to i64
  %21 = icmp ugt i64 %20, 4096
  br i1 %21, label %22, label %23

22:                                               ; preds = %18
  br label %26

23:                                               ; preds = %18
  %24 = load i32, ptr %11, align 4, !tbaa !12
  %25 = sext i32 %24 to i64
  br label %26

26:                                               ; preds = %23, %22
  %27 = phi i64 [ 4096, %22 ], [ %25, %23 ]
  %28 = trunc i64 %27 to i32
  store i32 %28, ptr %12, align 4, !tbaa !12
  %29 = load ptr, ptr %5, align 8, !tbaa !4
  %30 = getelementptr inbounds nuw %struct.MOVMuxCencContext, ptr %29, i32 0, i32 0
  %31 = load ptr, ptr %30, align 8, !tbaa !14
  %32 = getelementptr inbounds [4096 x i8], ptr %9, i64 0, i64 0
  %33 = load ptr, ptr %10, align 8, !tbaa !10
  %34 = load i32, ptr %12, align 4, !tbaa !12
  call void @av_aes_ctr_crypt(ptr noundef %31, ptr noundef %32, ptr noundef %33, i32 noundef %34)
  %35 = load ptr, ptr %6, align 8, !tbaa !8
  %36 = getelementptr inbounds [4096 x i8], ptr %9, i64 0, i64 0
  %37 = load i32, ptr %12, align 4, !tbaa !12
  call void @avio_write(ptr noundef %35, ptr noundef %36, i32 noundef %37)
  %38 = load i32, ptr %12, align 4, !tbaa !12
  %39 = load ptr, ptr %10, align 8, !tbaa !10
  %40 = sext i32 %38 to i64
  %41 = getelementptr inbounds i8, ptr %39, i64 %40
  store ptr %41, ptr %10, align 8, !tbaa !10
  %42 = load i32, ptr %12, align 4, !tbaa !12
  %43 = load i32, ptr %11, align 4, !tbaa !12
  %44 = sub nsw i32 %43, %42
  store i32 %44, ptr %11, align 4, !tbaa !12
  br label %15, !llvm.loop !31

45:                                               ; preds = %15
  call void @llvm.lifetime.end.p0(i64 4, ptr %12) #7
  call void @llvm.lifetime.end.p0(i64 4, ptr %11) #7
  call void @llvm.lifetime.end.p0(i64 8, ptr %10) #7
  call void @llvm.lifetime.end.p0(i64 4096, ptr %9) #7
  ret void
}

; Function Attrs: nounwind uwtable
define internal i32 @auxiliary_info_add_subsample(ptr noundef %0, i16 noundef zeroext %1, i32 noundef %2) #0 {
  %4 = alloca i32, align 4
  %5 = alloca ptr, align 8
  %6 = alloca i16, align 2
  %7 = alloca i32, align 4
  %8 = alloca ptr, align 8
  %9 = alloca i32, align 4
  %10 = alloca i32, align 4
  store ptr %0, ptr %5, align 8, !tbaa !4
  store i16 %1, ptr %6, align 2, !tbaa !28
  store i32 %2, ptr %7, align 4, !tbaa !12
  call void @llvm.lifetime.start.p0(i64 8, ptr %8) #7
  call void @llvm.lifetime.start.p0(i64 4, ptr %9) #7
  %11 = load ptr, ptr %5, align 8, !tbaa !4
  %12 = getelementptr inbounds nuw %struct.MOVMuxCencContext, ptr %11, i32 0, i32 5
  %13 = load i32, ptr %12, align 4, !tbaa !24
  %14 = icmp ne i32 %13, 0
  br i1 %14, label %16, label %15

15:                                               ; preds = %3
  store i32 0, ptr %4, align 4
  store i32 1, ptr %10, align 4
  br label %47

16:                                               ; preds = %3
  %17 = load ptr, ptr %5, align 8, !tbaa !4
  %18 = call i32 @auxiliary_info_alloc_size(ptr noundef %17, i32 noundef 6)
  store i32 %18, ptr %9, align 4, !tbaa !12
  %19 = load i32, ptr %9, align 4, !tbaa !12
  %20 = icmp ne i32 %19, 0
  br i1 %20, label %21, label %23

21:                                               ; preds = %16
  %22 = load i32, ptr %9, align 4, !tbaa !12
  store i32 %22, ptr %4, align 4
  store i32 1, ptr %10, align 4
  br label %47

23:                                               ; preds = %16
  %24 = load ptr, ptr %5, align 8, !tbaa !4
  %25 = getelementptr inbounds nuw %struct.MOVMuxCencContext, ptr %24, i32 0, i32 1
  %26 = load ptr, ptr %25, align 8, !tbaa !29
  %27 = load ptr, ptr %5, align 8, !tbaa !4
  %28 = getelementptr inbounds nuw %struct.MOVMuxCencContext, ptr %27, i32 0, i32 2
  %29 = load i64, ptr %28, align 8, !tbaa !25
  %30 = getelementptr inbounds nuw i8, ptr %26, i64 %29
  store ptr %30, ptr %8, align 8, !tbaa !10
  %31 = load i16, ptr %6, align 2, !tbaa !28
  %32 = call zeroext i16 @av_bswap16(i16 noundef zeroext %31) #8
  %33 = load ptr, ptr %8, align 8, !tbaa !10
  store i16 %32, ptr %33, align 1, !tbaa !30
  %34 = load ptr, ptr %8, align 8, !tbaa !10
  %35 = getelementptr inbounds nuw i8, ptr %34, i64 2
  store ptr %35, ptr %8, align 8, !tbaa !10
  %36 = load i32, ptr %7, align 4, !tbaa !12
  %37 = call i32 @av_bswap32(i32 noundef %36) #8
  %38 = load ptr, ptr %8, align 8, !tbaa !10
  store i32 %37, ptr %38, align 1, !tbaa !30
  %39 = load ptr, ptr %5, align 8, !tbaa !4
  %40 = getelementptr inbounds nuw %struct.MOVMuxCencContext, ptr %39, i32 0, i32 2
  %41 = load i64, ptr %40, align 8, !tbaa !25
  %42 = add i64 %41, 6
  store i64 %42, ptr %40, align 8, !tbaa !25
  %43 = load ptr, ptr %5, align 8, !tbaa !4
  %44 = getelementptr inbounds nuw %struct.MOVMuxCencContext, ptr %43, i32 0, i32 6
  %45 = load i16, ptr %44, align 8, !tbaa !27
  %46 = add i16 %45, 1
  store i16 %46, ptr %44, align 8, !tbaa !27
  store i32 0, ptr %4, align 4
  store i32 1, ptr %10, align 4
  br label %47

47:                                               ; preds = %23, %21, %15
  call void @llvm.lifetime.end.p0(i64 4, ptr %9) #7
  call void @llvm.lifetime.end.p0(i64 8, ptr %8) #7
  %48 = load i32, ptr %4, align 4
  ret i32 %48
}

; Function Attrs: nounwind uwtable
define i32 @ff_mov_cenc_write_packet(ptr noundef %0, ptr noundef %1, ptr noundef %2, i32 noundef %3) #0 {
  %5 = alloca i32, align 4
  %6 = alloca ptr, align 8
  %7 = alloca ptr, align 8
  %8 = alloca ptr, align 8
  %9 = alloca i32, align 4
  %10 = alloca i32, align 4
  %11 = alloca i32, align 4
  store ptr %0, ptr %6, align 8, !tbaa !4
  store ptr %1, ptr %7, align 8, !tbaa !8
  store ptr %2, ptr %8, align 8, !tbaa !10
  store i32 %3, ptr %9, align 4, !tbaa !12
  call void @llvm.lifetime.start.p0(i64 4, ptr %10) #7
  %12 = load ptr, ptr %6, align 8, !tbaa !4
  %13 = call i32 @mov_cenc_start_packet(ptr noundef %12)
  store i32 %13, ptr %10, align 4, !tbaa !12
  %14 = load i32, ptr %10, align 4, !tbaa !12
  %15 = icmp ne i32 %14, 0
  br i1 %15, label %16, label %18

16:                                               ; preds = %4
  %17 = load i32, ptr %10, align 4, !tbaa !12
  store i32 %17, ptr %5, align 4
  store i32 1, ptr %11, align 4
  br label %38

18:                                               ; preds = %4
  %19 = load ptr, ptr %6, align 8, !tbaa !4
  %20 = load i32, ptr %9, align 4, !tbaa !12
  %21 = call i32 @auxiliary_info_add_subsample(ptr noundef %19, i16 noundef zeroext 0, i32 noundef %20)
  store i32 %21, ptr %10, align 4, !tbaa !12
  %22 = load i32, ptr %10, align 4, !tbaa !12
  %23 = icmp ne i32 %22, 0
  br i1 %23, label %24, label %26

24:                                               ; preds = %18
  %25 = load i32, ptr %10, align 4, !tbaa !12
  store i32 %25, ptr %5, align 4
  store i32 1, ptr %11, align 4
  br label %38

26:                                               ; preds = %18
  %27 = load ptr, ptr %6, align 8, !tbaa !4
  %28 = load ptr, ptr %7, align 8, !tbaa !8
  %29 = load ptr, ptr %8, align 8, !tbaa !10
  %30 = load i32, ptr %9, align 4, !tbaa !12
  call void @mov_cenc_write_encrypted(ptr noundef %27, ptr noundef %28, ptr noundef %29, i32 noundef %30)
  %31 = load ptr, ptr %6, align 8, !tbaa !4
  %32 = call i32 @mov_cenc_end_packet(ptr noundef %31)
  store i32 %32, ptr %10, align 4, !tbaa !12
  %33 = load i32, ptr %10, align 4, !tbaa !12
  %34 = icmp ne i32 %33, 0
  br i1 %34, label %35, label %37

35:                                               ; preds = %26
  %36 = load i32, ptr %10, align 4, !tbaa !12
  store i32 %36, ptr %5, align 4
  store i32 1, ptr %11, align 4
  br label %38

37:                                               ; preds = %26
  store i32 0, ptr %5, align 4
  store i32 1, ptr %11, align 4
  br label %38

38:                                               ; preds = %37, %35, %24, %16
  call void @llvm.lifetime.end.p0(i64 4, ptr %10) #7
  %39 = load i32, ptr %5, align 4
  ret i32 %39
}