; Function Attrs: nounwind uwtable
define range(i32 -12, 1) i32 @ff_mov_cenc_write_packet(ptr noundef %0, ptr noundef %1, ptr noundef %2, i32 noundef %3) local_unnamed_addr #0 {
  %5 = alloca [4096 x i8], align 16
  %6 = tail call fastcc i32 @mov_cenc_start_packet(ptr noundef %0)
  %.not = icmp eq i32 %6, 0
  br i1 %.not, label %7, label %auxiliary_info_add_subsample.exit

7:                                                ; preds = %4
  %8 = getelementptr inbounds nuw i8, ptr %0, i64 36
  %9 = load i32, ptr %8, align 4, !tbaa !4
  %.not.i = icmp eq i32 %9, 0
  br i1 %.not.i, label %34, label %10

10:                                               ; preds = %7
  %11 = getelementptr inbounds nuw i8, ptr %0, i64 16
  %12 = load i64, ptr %11, align 8, !tbaa !19
  %13 = add i64 %12, 6
  %14 = getelementptr inbounds nuw i8, ptr %0, i64 24
  %15 = load i64, ptr %14, align 8, !tbaa !20
  %16 = icmp ugt i64 %13, %15
  br i1 %16, label %17, label %22

17:                                               ; preds = %10
  %18 = shl i64 %15, 1
  %..i.i = tail call i64 @llvm.umax.i64(i64 %13, i64 %18)
  %19 = getelementptr inbounds nuw i8, ptr %0, i64 8
  %20 = tail call i32 @av_reallocp(ptr noundef nonnull %19, i64 noundef %..i.i) #5
  %.not.i.i = icmp eq i32 %20, 0
  br i1 %.not.i.i, label %21, label %auxiliary_info_add_subsample.exit

21:                                               ; preds = %17
  store i64 %..i.i, ptr %14, align 8, !tbaa !20
  %.pre.i = load i64, ptr %11, align 8, !tbaa !19
  br label %22

22:                                               ; preds = %21, %10
  %23 = phi i64 [ %.pre.i, %21 ], [ %12, %10 ]
  %24 = getelementptr inbounds nuw i8, ptr %0, i64 8
  %25 = load ptr, ptr %24, align 8, !tbaa !21
  %26 = getelementptr inbounds nuw i8, ptr %25, i64 %23
  store i16 0, ptr %26, align 1, !tbaa !22
  %27 = getelementptr inbounds nuw i8, ptr %26, i64 2
  %28 = tail call i32 @llvm.bswap.i32(i32 %3)
  store i32 %28, ptr %27, align 1, !tbaa !22
  %29 = load i64, ptr %11, align 8, !tbaa !19
  %30 = add i64 %29, 6
  store i64 %30, ptr %11, align 8, !tbaa !19
  %31 = getelementptr inbounds nuw i8, ptr %0, i64 40
  %32 = load i16, ptr %31, align 8, !tbaa !23
  %33 = add i16 %32, 1
  store i16 %33, ptr %31, align 8, !tbaa !23
  br label %34

34:                                               ; preds = %22, %7
  call void @llvm.lifetime.start.p0(i64 4096, ptr nonnull %5) #5
  %35 = icmp sgt i32 %3, 0
  br i1 %35, label %.lr.ph.i, label %mov_cenc_write_encrypted.exit

.lr.ph.i:                                         ; preds = %34, %.lr.ph.i
  %.015.i = phi ptr [ %39, %.lr.ph.i ], [ %2, %34 ]
  %.01314.i = phi i32 [ %40, %.lr.ph.i ], [ %3, %34 ]
  %36 = call i32 @llvm.umin.i32(i32 %.01314.i, i32 4096)
  %37 = load ptr, ptr %0, align 8, !tbaa !24
  call void @av_aes_ctr_crypt(ptr noundef %37, ptr noundef nonnull %5, ptr noundef %.015.i, i32 noundef %36) #5
  call void @avio_write(ptr noundef %1, ptr noundef nonnull %5, i32 noundef %36) #5
  %38 = zext nneg i32 %36 to i64
  %39 = getelementptr inbounds nuw i8, ptr %.015.i, i64 %38
  %40 = sub nsw i32 %.01314.i, %36
  %41 = icmp sgt i32 %40, 0
  br i1 %41, label %.lr.ph.i, label %mov_cenc_write_encrypted.exit, !llvm.loop !25

mov_cenc_write_encrypted.exit:                    ; preds = %.lr.ph.i, %34
  call void @llvm.lifetime.end.p0(i64 4096, ptr nonnull %5) #5
  %42 = load ptr, ptr %0, align 8, !tbaa !24
  call void @av_aes_ctr_increment_iv(ptr noundef %42) #5
  %43 = load i32, ptr %8, align 4, !tbaa !4
  %.not.i19 = icmp eq i32 %43, 0
  %44 = getelementptr inbounds nuw i8, ptr %0, i64 32
  %45 = load i32, ptr %44, align 8, !tbaa !27
  br i1 %.not.i19, label %46, label %48

46:                                               ; preds = %mov_cenc_write_encrypted.exit
  %47 = add i32 %45, 1
  store i32 %47, ptr %44, align 8, !tbaa !27
  br label %auxiliary_info_add_subsample.exit

48:                                               ; preds = %mov_cenc_write_encrypted.exit
  %49 = zext i32 %45 to i64
  %50 = getelementptr inbounds nuw i8, ptr %0, i64 64
  %51 = load i64, ptr %50, align 8, !tbaa !28
  %.not18.i = icmp ugt i64 %51, %49
  br i1 %.not18.i, label %59, label %52

52:                                               ; preds = %48
  %53 = shl i32 %45, 1
  %54 = or disjoint i32 %53, 1
  %55 = zext i32 %54 to i64
  %56 = getelementptr inbounds nuw i8, ptr %0, i64 56
  %57 = call i32 @av_reallocp(ptr noundef nonnull %56, i64 noundef %55) #5
  %.not19.i = icmp eq i32 %57, 0
  br i1 %.not19.i, label %58, label %auxiliary_info_add_subsample.exit

58:                                               ; preds = %52
  store i64 %55, ptr %50, align 8, !tbaa !28
  %.pre.i21 = load i32, ptr %44, align 8, !tbaa !27
  %.pre20.i = zext i32 %.pre.i21 to i64
  br label %59

59:                                               ; preds = %58, %48
  %.pre-phi.i = phi i64 [ %.pre20.i, %58 ], [ %49, %48 ]
  %60 = getelementptr inbounds nuw i8, ptr %0, i64 16
  %61 = load i64, ptr %60, align 8, !tbaa !19
  %62 = add i64 %61, 8
  %63 = getelementptr inbounds nuw i8, ptr %0, i64 48
  %64 = load i64, ptr %63, align 8, !tbaa !29
  %65 = sub i64 %62, %64
  %66 = trunc i64 %65 to i8
  %67 = getelementptr inbounds nuw i8, ptr %0, i64 56
  %68 = load ptr, ptr %67, align 8, !tbaa !30
  %69 = getelementptr inbounds nuw i8, ptr %68, i64 %.pre-phi.i
  store i8 %66, ptr %69, align 1, !tbaa !22
  %70 = load i32, ptr %44, align 8, !tbaa !27
  %71 = add i32 %70, 1
  store i32 %71, ptr %44, align 8, !tbaa !27
  %72 = getelementptr inbounds nuw i8, ptr %0, i64 40
  %73 = load i16, ptr %72, align 8, !tbaa !23
  %74 = call i16 @llvm.bswap.i16(i16 %73)
  %75 = getelementptr inbounds nuw i8, ptr %0, i64 8
  %76 = load ptr, ptr %75, align 8, !tbaa !21
  %77 = load i64, ptr %63, align 8, !tbaa !29
  %78 = getelementptr inbounds nuw i8, ptr %76, i64 %77
  store i16 %74, ptr %78, align 1, !tbaa !22
  br label %auxiliary_info_add_subsample.exit

auxiliary_info_add_subsample.exit:                ; preds = %59, %52, %46, %17, %4
  %.0 = phi i32 [ %6, %4 ], [ -12, %17 ], [ 0, %59 ], [ 0, %46 ], [ -12, %52 ]
  ret i32 %.0
}